; Function Attrs: mustprogress nounwind uwtable
define hidden noundef ptr @_ZN7MulNode8IdentityEP8PhaseGVN(ptr noundef nonnull align 8 dereferenceable(52) %0, ptr nocapture noundef readonly %1) unnamed_addr #0 align 2 {
  %3 = load ptr, ptr %0, align 8
  %4 = getelementptr inbounds i8, ptr %3, i64 200
  %5 = load ptr, ptr %4, align 8
  %6 = tail call noundef ptr %5(ptr noundef nonnull align 8 dereferenceable(52) %0) #10
  %7 = getelementptr inbounds i8, ptr %0, i64 8
  %8 = load ptr, ptr %7, align 8
  %9 = getelementptr inbounds i8, ptr %8, i64 8
  %10 = load ptr, ptr %9, align 8
  %11 = getelementptr inbounds i8, ptr %1, i64 40
  %12 = load ptr, ptr %11, align 8
  %13 = getelementptr inbounds i8, ptr %10, i64 40
  %14 = load i32, ptr %13, align 8
  %15 = getelementptr inbounds i8, ptr %12, i64 16
  %16 = load ptr, ptr %15, align 8
  %17 = zext i32 %14 to i64
  %18 = getelementptr inbounds ptr, ptr %16, i64 %17
  %19 = load ptr, ptr %18, align 8
  %20 = tail call noundef ptr @_ZNK4Type11meet_helperEPKS_b(ptr noundef nonnull align 8 dereferenceable(20) %19, ptr noundef %6, i1 noundef zeroext false) #10
  %21 = load ptr, ptr %6, align 8
  %22 = getelementptr inbounds i8, ptr %21, i64 128
  %23 = load ptr, ptr %22, align 8
  %24 = tail call noundef ptr %23(ptr noundef nonnull align 8 dereferenceable(20) %6) #10
  %25 = tail call noundef zeroext i1 @_ZN4Type6equalsEPKS_S1_(ptr noundef %20, ptr noundef %24) #10
  %26 = load ptr, ptr %7, align 8
  %27 = getelementptr inbounds i8, ptr %26, i64 16
  %28 = load ptr, ptr %27, align 8
  br i1 %25, label %48, label %29

29:                                               ; preds = %2
  %30 = load ptr, ptr %11, align 8
  %31 = getelementptr inbounds i8, ptr %28, i64 40
  %32 = load i32, ptr %31, align 8
  %33 = getelementptr inbounds i8, ptr %30, i64 16
  %34 = load ptr, ptr %33, align 8
  %35 = zext i32 %32 to i64
  %36 = getelementptr inbounds ptr, ptr %34, i64 %35
  %37 = load ptr, ptr %36, align 8
  %38 = tail call noundef ptr @_ZNK4Type11meet_helperEPKS_b(ptr noundef nonnull align 8 dereferenceable(20) %37, ptr noundef nonnull %6, i1 noundef zeroext false) #10
  %39 = load ptr, ptr %6, align 8
  %40 = getelementptr inbounds i8, ptr %39, i64 128
  %41 = load ptr, ptr %40, align 8
  %42 = tail call noundef ptr %41(ptr noundef nonnull align 8 dereferenceable(20) %6) #10
  %43 = tail call noundef zeroext i1 @_ZN4Type6equalsEPKS_S1_(ptr noundef %38, ptr noundef %42) #10
  br i1 %43, label %44, label %48

44:                                               ; preds = %29
  %45 = load ptr, ptr %7, align 8
  %46 = getelementptr inbounds i8, ptr %45, i64 8
  %47 = load ptr, ptr %46, align 8
  br label %48

48:                                               ; preds = %2, %29, %44
  %.0 = phi ptr [ %47, %44 ], [ %0, %29 ], [ %28, %2 ]
  ret ptr %.0
}